; Function Attrs: mustprogress uwtable
define noundef zeroext i1 @_ZNK7rocksdb20StringAppendOperator5MergeERKNS_5SliceEPS2_S3_PNSt7__cxx1112basic_stringIcSt11char_traitsIcESaIcEEEPNS_6LoggerE(ptr noundef nonnull readonly align 8 captures(none) dereferenceable(64) %0, ptr nonnull readnone align 8 captures(none) %1, ptr noundef readonly %2, ptr noundef nonnull readonly align 8 captures(none) dereferenceable(16) %3, ptr noundef initializes((8, 16)) %4, ptr readnone captures(none) %5) unnamed_addr #1 align 2 personality ptr @__gxx_personality_v0 {
  %7 = getelementptr inbounds nuw i8, ptr %4, i64 8
  store i64 0, ptr %7, align 8, !tbaa !31
  %8 = load ptr, ptr %4, align 8, !tbaa !26
  store i8 0, ptr %8, align 1, !tbaa !32
  %.not = icmp eq ptr %2, null
  br i1 %.not, label %9, label %15

9:                                                ; preds = %6
  %10 = load ptr, ptr %3, align 8, !tbaa !56
  %11 = getelementptr inbounds nuw i8, ptr %3, i64 8
  %12 = load i64, ptr %11, align 8, !tbaa !58
  %13 = load i64, ptr %7, align 8, !tbaa !31
  %14 = tail call noundef nonnull align 8 dereferenceable(32) ptr @_ZNSt7__cxx1112basic_stringIcSt11char_traitsIcESaIcEE10_M_replaceEmmPKcm(ptr noundef nonnull align 8 dereferenceable(32) %4, i64 noundef 0, i64 noundef %13, ptr noundef %10, i64 noundef %12)
  br label %43

15:                                               ; preds = %6
  %16 = getelementptr inbounds nuw i8, ptr %2, i64 8
  %17 = load i64, ptr %16, align 8, !tbaa !58
  %18 = getelementptr inbounds nuw i8, ptr %0, i64 40
  %19 = load i64, ptr %18, align 8, !tbaa !31
  %20 = add i64 %19, %17
  %21 = getelementptr inbounds nuw i8, ptr %3, i64 8
  %22 = load i64, ptr %21, align 8, !tbaa !58
  %23 = add i64 %20, %22
  tail call void @_ZNSt7__cxx1112basic_stringIcSt11char_traitsIcESaIcEE7reserveEm(ptr noundef nonnull align 8 dereferenceable(32) %4, i64 noundef %23)
  %24 = load ptr, ptr %2, align 8, !tbaa !56
  %25 = load i64, ptr %16, align 8, !tbaa !58
  %26 = load i64, ptr %7, align 8, !tbaa !31
  %27 = tail call noundef nonnull align 8 dereferenceable(32) ptr @_ZNSt7__cxx1112basic_stringIcSt11char_traitsIcESaIcEE10_M_replaceEmmPKcm(ptr noundef nonnull align 8 dereferenceable(32) %4, i64 noundef 0, i64 noundef %26, ptr noundef %24, i64 noundef %25)
  %28 = load i64, ptr %18, align 8, !tbaa !31
  %29 = load i64, ptr %7, align 8, !tbaa !31
  %30 = sub i64 4611686018427387903, %29
  %31 = icmp ult i64 %30, %28
  br i1 %31, label %32, label %_ZNSt7__cxx1112basic_stringIcSt11char_traitsIcESaIcEE6appendERKS4_.exit

32:                                               ; preds = %15
  tail call void @_ZSt20__throw_length_errorPKc(ptr noundef nonnull @.str.6) #22
  unreachable

_ZNSt7__cxx1112basic_stringIcSt11char_traitsIcESaIcEE6appendERKS4_.exit: ; preds = %15
  %33 = getelementptr inbounds nuw i8, ptr %0, i64 32
  %34 = load ptr, ptr %33, align 8, !tbaa !26
  %35 = tail call noundef nonnull align 8 dereferenceable(32) ptr @_ZNSt7__cxx1112basic_stringIcSt11char_traitsIcESaIcEE9_M_appendEPKcm(ptr noundef nonnull align 8 dereferenceable(32) %4, ptr noundef %34, i64 noundef %28)
  %36 = load i64, ptr %21, align 8, !tbaa !58
  %37 = load i64, ptr %7, align 8, !tbaa !31
  %38 = sub i64 4611686018427387903, %37
  %39 = icmp ult i64 %38, %36
  br i1 %39, label %40, label %_ZNSt7__cxx1112basic_stringIcSt11char_traitsIcESaIcEE6appendEPKcm.exit

40:                                               ; preds = %_ZNSt7__cxx1112basic_stringIcSt11char_traitsIcESaIcEE6appendERKS4_.exit
  tail call void @_ZSt20__throw_length_errorPKc(ptr noundef nonnull @.str.6) #22
  unreachable

_ZNSt7__cxx1112basic_stringIcSt11char_traitsIcESaIcEE6appendEPKcm.exit: ; preds = %_ZNSt7__cxx1112basic_stringIcSt11char_traitsIcESaIcEE6appendERKS4_.exit
  %41 = load ptr, ptr %3, align 8, !tbaa !56
  %42 = tail call noundef nonnull align 8 dereferenceable(32) ptr @_ZNSt7__cxx1112basic_stringIcSt11char_traitsIcESaIcEE9_M_appendEPKcm(ptr noundef nonnull align 8 dereferenceable(32) %4, ptr noundef %41, i64 noundef %36)
  br label %43

43:                                               ; preds = %_ZNSt7__cxx1112basic_stringIcSt11char_traitsIcESaIcEE6appendEPKcm.exit, %9
  ret i1 true
}